target datalayout = "e-m:e-p270:32:32-p271:32:32-p272:64:64-i64:64-i128:128-f80:128-n8:16:32:64-S128"
target triple = "x86_64-pc-linux-gnu"

%struct.Vec_Int_t_ = type { i32, i32, ptr }

; Function Attrs: inlinehint nounwind uwtable
define internal i32 @Vec_IntEntry(ptr noundef %0, i32 noundef %1) #2 {
  %3 = alloca ptr, align 8
  %4 = alloca i32, align 4
  store ptr %0, ptr %3, align 8, !tbaa !31
  store i32 %1, ptr %4, align 4, !tbaa !8
  %5 = load ptr, ptr %3, align 8, !tbaa !31
  %6 = getelementptr inbounds nuw %struct.Vec_Int_t_, ptr %5, i32 0, i32 2
  %7 = load ptr, ptr %6, align 8, !tbaa !35
  %8 = load i32, ptr %4, align 4, !tbaa !8
  %9 = sext i32 %8 to i64
  %10 = getelementptr inbounds i32, ptr %7, i64 %9
  %11 = load i32, ptr %10, align 4, !tbaa !8
  ret i32 %11
}

; Function Attrs: nounwind uwtable
define i32 @Wlc_NtkMuxTree2_nb(ptr noundef %0, ptr noundef %1, i32 noundef %2, ptr noundef %3, ptr noundef %4) #0 {
  %6 = alloca ptr, align 8
  %7 = alloca ptr, align 8
  %8 = alloca i32, align 4
  %9 = alloca ptr, align 8
  %10 = alloca ptr, align 8
  %11 = alloca i32, align 4
  %12 = alloca i32, align 4
  %13 = alloca i32, align 4
  store ptr %0, ptr %6, align 8, !tbaa !38
  store ptr %1, ptr %7, align 8, !tbaa !3
  store i32 %2, ptr %8, align 4, !tbaa !8
  store ptr %3, ptr %9, align 8, !tbaa !31
  store ptr %4, ptr %10, align 8, !tbaa !31
  call void @llvm.lifetime.start.p0(i64 4, ptr %11) #12
  store i32 0, ptr %11, align 4, !tbaa !8
  call void @llvm.lifetime.start.p0(i64 4, ptr %12) #12
  call void @llvm.lifetime.start.p0(i64 4, ptr %13) #12
  store i32 0, ptr %13, align 4, !tbaa !8
  br label %14

14:                                               ; preds = %32, %5
  %15 = load i32, ptr %13, align 4, !tbaa !8
  %16 = load i32, ptr %8, align 4, !tbaa !8
  %17 = shl i32 1, %16
  %18 = icmp slt i32 %15, %17
  br i1 %18, label %19, label %35

19:                                               ; preds = %14
  %20 = load ptr, ptr %6, align 8, !tbaa !38
  %21 = load ptr, ptr %10, align 8, !tbaa !31
  %22 = load i32, ptr %13, align 4, !tbaa !8
  %23 = call i32 @Vec_IntEntry(ptr noundef %21, i32 noundef %22)
  %24 = load ptr, ptr %9, align 8, !tbaa !31
  %25 = load i32, ptr %13, align 4, !tbaa !8
  %26 = call i32 @Vec_IntEntry(ptr noundef %24, i32 noundef %25)
  %27 = call i32 @Gia_ManHashAnd(ptr noundef %20, i32 noundef %23, i32 noundef %26)
  store i32 %27, ptr %12, align 4, !tbaa !8
  %28 = load ptr, ptr %6, align 8, !tbaa !38
  %29 = load i32, ptr %11, align 4, !tbaa !8
  %30 = load i32, ptr %12, align 4, !tbaa !8
  %31 = call i32 @Gia_ManHashOr(ptr noundef %28, i32 noundef %29, i32 noundef %30)
  store i32 %31, ptr %11, align 4, !tbaa !8
  br label %32

32:                                               ; preds = %19
  %33 = load i32, ptr %13, align 4, !tbaa !8
  %34 = add nsw i32 %33, 1
  store i32 %34, ptr %13, align 4, !tbaa !8
  br label %14, !llvm.loop !40

35:                                               ; preds = %14
  %36 = load i32, ptr %11, align 4, !tbaa !8
  call void @llvm.lifetime.end.p0(i64 4, ptr %13) #12
  call void @llvm.lifetime.end.p0(i64 4, ptr %12) #12
  call void @llvm.lifetime.end.p0(i64 4, ptr %11) #12
  ret i32 %36
}