; Function Attrs: nounwind uwtable
define i32 @Wlc_NtkMuxTree2_nb(ptr noundef %0, ptr noundef readnone captures(none) %1, i32 noundef %2, ptr noundef readonly captures(none) %3, ptr noundef readonly captures(none) %4) local_unnamed_addr #2 {
  %.not = icmp eq i32 %2, 31
  br i1 %.not, label %._crit_edge, label %.lr.ph

.lr.ph:                                           ; preds = %5
  %6 = shl nuw nsw i32 1, %2
  %7 = getelementptr i8, ptr %4, i64 8
  %8 = getelementptr i8, ptr %3, i64 8
  %wide.trip.count = zext nneg i32 %6 to i64
  br label %9

9:                                                ; preds = %.lr.ph, %9
  %indvars.iv = phi i64 [ 0, %.lr.ph ], [ %indvars.iv.next, %9 ]
  %.01113 = phi i32 [ 0, %.lr.ph ], [ %15, %9 ]
  %.val12 = load ptr, ptr %7, align 8, !tbaa !22
  %10 = getelementptr inbounds nuw i32, ptr %.val12, i64 %indvars.iv
  %11 = load i32, ptr %10, align 4, !tbaa !3
  %.val = load ptr, ptr %8, align 8, !tbaa !22
  %12 = getelementptr inbounds nuw i32, ptr %.val, i64 %indvars.iv
  %13 = load i32, ptr %12, align 4, !tbaa !3
  %14 = tail call i32 @Gia_ManHashAnd(ptr noundef %0, i32 noundef %11, i32 noundef %13) #23
  %15 = tail call i32 @Gia_ManHashOr(ptr noundef %0, i32 noundef %.01113, i32 noundef %14) #23
  %indvars.iv.next = add nuw nsw i64 %indvars.iv, 1
  %exitcond.not = icmp eq i64 %indvars.iv.next, %wide.trip.count
  br i1 %exitcond.not, label %._crit_edge, label %9, !llvm.loop !33

._crit_edge:                                      ; preds = %9, %5
  %.011.lcssa = phi i32 [ 0, %5 ], [ %15, %9 ]
  ret i32 %.011.lcssa
}